target datalayout = "e-m:e-p270:32:32-p271:32:32-p272:64:64-i64:64-i128:128-f80:128-n8:16:32:64-S128"
target triple = "x86_64-pc-linux-gnu"

; Function Attrs: nounwind uwtable
define ptr @cuddNodeArray(ptr noundef %0, ptr noundef %1) #0 {
  %3 = alloca ptr, align 8
  %4 = alloca ptr, align 8
  %5 = alloca ptr, align 8
  %6 = alloca ptr, align 8
  %7 = alloca i32, align 4
  %8 = alloca i32, align 4
  store ptr %0, ptr %4, align 8
  store ptr %1, ptr %5, align 8
  %9 = load ptr, ptr %4, align 8
  %10 = ptrtoint ptr %9 to i64
  %11 = and i64 %10, -2
  %12 = inttoptr i64 %11 to ptr
  %13 = call i32 @ddDagInt(ptr noundef %12)
  store i32 %13, ptr %7, align 4
  %14 = load i32, ptr %7, align 4
  %15 = sext i32 %14 to i64
  %16 = mul i64 8, %15
  %17 = call noalias ptr @malloc(i64 noundef %16) #5
  store ptr %17, ptr %6, align 8
  %18 = load ptr, ptr %6, align 8
  %19 = icmp eq ptr %18, null
  br i1 %19, label %20, label %25

20:                                               ; preds = %2
  %21 = load ptr, ptr %4, align 8
  %22 = ptrtoint ptr %21 to i64
  %23 = and i64 %22, -2
  %24 = inttoptr i64 %23 to ptr
  call void @ddClearFlag(ptr noundef %24)
  store ptr null, ptr %3, align 8
  br label %32

25:                                               ; preds = %2
  %26 = load ptr, ptr %4, align 8
  %27 = load ptr, ptr %6, align 8
  %28 = call i32 @cuddNodeArrayRecur(ptr noundef %26, ptr noundef %27, i32 noundef 0)
  store i32 %28, ptr %8, align 4
  %29 = load i32, ptr %7, align 4
  %30 = load ptr, ptr %5, align 8
  store i32 %29, ptr %30, align 4
  %31 = load ptr, ptr %6, align 8
  store ptr %31, ptr %3, align 8
  br label %32

32:                                               ; preds = %25, %20
  %33 = load ptr, ptr %3, align 8
  ret ptr %33
}