; Function Attrs: nofree nounwind uwtable
define noundef ptr @cuddNodeArray(ptr noundef %0, ptr noundef writeonly captures(none) %1) local_unnamed_addr #2 {
  %3 = ptrtoint ptr %0 to i64
  %4 = and i64 %3, -2
  %5 = inttoptr i64 %4 to ptr
  %6 = tail call fastcc i32 @ddDagInt(ptr noundef %5)
  %7 = sext i32 %6 to i64
  %8 = shl nsw i64 %7, 3
  %9 = tail call noalias ptr @malloc(i64 noundef %8) #22
  %10 = icmp eq ptr %9, null
  br i1 %10, label %11, label %12

11:                                               ; preds = %2
  tail call fastcc void @ddClearFlag(ptr noundef %5)
  br label %14

12:                                               ; preds = %2
  %13 = tail call fastcc i32 @cuddNodeArrayRecur(ptr noundef %0, ptr noundef %9, i32 noundef 0)
  store i32 %6, ptr %1, align 4
  br label %14

14:                                               ; preds = %12, %11
  ret ptr %9
}